                              1 ;--------------------------------------------------------
                              2 ; File Created by SDCC : free open source ANSI-C Compiler
                              3 ; Version 3.6.8 #9946 (Linux)
                              4 ;--------------------------------------------------------
                              5 	.module main
                              6 	.optsdcc -mz80
                              7 	
                              8 ;--------------------------------------------------------
                              9 ; Public variables in this module
                             10 ;--------------------------------------------------------
                             11 	.globl _main
                             12 	.globl _drawSprite
                             13 	.globl _cpct_getScreenPtr
                             14 	.globl _cpct_setPALColour
                             15 	.globl _cpct_setPalette
                             16 	.globl _cpct_waitVSYNC
                             17 	.globl _cpct_setVideoMode
                             18 	.globl _cpct_drawSprite
                             19 	.globl _cpct_disableFirmware
                             20 ;--------------------------------------------------------
                             21 ; special function registers
                             22 ;--------------------------------------------------------
                             23 ;--------------------------------------------------------
                             24 ; ram data
                             25 ;--------------------------------------------------------
                             26 	.area _DATA
                             27 ;--------------------------------------------------------
                             28 ; ram data
                             29 ;--------------------------------------------------------
                             30 	.area _INITIALIZED
                             31 ;--------------------------------------------------------
                             32 ; absolute external ram data
                             33 ;--------------------------------------------------------
                             34 	.area _DABS (ABS)
                             35 ;--------------------------------------------------------
                             36 ; global & static initialisations
                             37 ;--------------------------------------------------------
                             38 	.area _HOME
                             39 	.area _GSINIT
                             40 	.area _GSFINAL
                             41 	.area _GSINIT
                             42 ;--------------------------------------------------------
                             43 ; Home
                             44 ;--------------------------------------------------------
                             45 	.area _HOME
                             46 	.area _HOME
                             47 ;--------------------------------------------------------
                             48 ; code
                             49 ;--------------------------------------------------------
                             50 	.area _CODE
                             51 ;src/main.c:33: void drawSprite(u8 *sprite,int sprite_vertical_pos,int sprite_horizontal_pos,int sprite_width,int sprite_height)
                             52 ;	---------------------------------
                             53 ; Function drawSprite
                             54 ; ---------------------------------
   0000                      55 _drawSprite::
   0000 DD E5         [15]   56 	push	ix
   0002 DD 21 00 00   [14]   57 	ld	ix,#0
   0006 DD 39         [15]   58 	add	ix,sp
                             59 ;src/main.c:36: pvmem = cpct_getScreenPtr(CPCT_VMEM_START,sprite_horizontal_pos,sprite_vertical_pos);
   0008 DD 56 06      [19]   60 	ld	d, 6 (ix)
   000B DD 5E 08      [19]   61 	ld	e, 8 (ix)
   000E D5            [11]   62 	push	de
   000F 21 00 C0      [10]   63 	ld	hl, #0xc000
   0012 E5            [11]   64 	push	hl
   0013 CDr00r00      [17]   65 	call	_cpct_getScreenPtr
   0016 EB            [ 4]   66 	ex	de,hl
                             67 ;src/main.c:37: cpct_drawSprite(sprite,pvmem,sprite_width,sprite_height);
   0017 DD 66 0C      [19]   68 	ld	h, 12 (ix)
   001A DD 4E 0A      [19]   69 	ld	c, 10 (ix)
   001D DD 6E 04      [19]   70 	ld	l, 4 (ix)
   0020 DD 46 05      [19]   71 	ld	b, 5 (ix)
   0023 E5            [11]   72 	push	hl
   0024 33            [ 6]   73 	inc	sp
   0025 79            [ 4]   74 	ld	a, c
   0026 F5            [11]   75 	push	af
   0027 33            [ 6]   76 	inc	sp
   0028 D5            [11]   77 	push	de
   0029 60            [ 4]   78 	ld	h, b
   002A E5            [11]   79 	push	hl
   002B CDr00r00      [17]   80 	call	_cpct_drawSprite
   002E DD E1         [14]   81 	pop	ix
   0030 C9            [10]   82 	ret
                             83 ;src/main.c:41: void main(void) 
                             84 ;	---------------------------------
                             85 ; Function main
                             86 ; ---------------------------------
   0031                      87 _main::
                             88 ;src/main.c:50: cpct_disableFirmware();
   0031 CDr00r00      [17]   89 	call	_cpct_disableFirmware
                             90 ;src/main.c:52: cpct_setVideoMode(0);
   0034 2E 00         [ 7]   91 	ld	l, #0x00
   0036 CDr00r00      [17]   92 	call	_cpct_setVideoMode
                             93 ;src/main.c:53: cpct_setPalette(g_palette, 16);
   0039 21 10 00      [10]   94 	ld	hl, #0x0010
   003C E5            [11]   95 	push	hl
   003D 21r00r00      [10]   96 	ld	hl, #_g_palette
   0040 E5            [11]   97 	push	hl
   0041 CDr00r00      [17]   98 	call	_cpct_setPalette
                             99 ;src/main.c:54: cpct_setBorder(HW_BLACK);
   0044 21 10 14      [10]  100 	ld	hl, #0x1410
   0047 E5            [11]  101 	push	hl
   0048 CDr00r00      [17]  102 	call	_cpct_setPALColour
                            103 ;src/main.c:56: drawSprite(sp_player_ship, 
   004B 21 0E 00      [10]  104 	ld	hl, #0x000e
   004E E5            [11]  105 	push	hl
   004F 2E 06         [ 7]  106 	ld	l, #0x06
   0051 E5            [11]  107 	push	hl
   0052 2E 22         [ 7]  108 	ld	l, #0x22
   0054 E5            [11]  109 	push	hl
   0055 2E BA         [ 7]  110 	ld	l, #0xba
   0057 E5            [11]  111 	push	hl
   0058 21r00r00      [10]  112 	ld	hl, #_sp_player_ship
   005B E5            [11]  113 	push	hl
   005C CDr00r00      [17]  114 	call	_drawSprite
   005F 21 0A 00      [10]  115 	ld	hl, #10
   0062 39            [11]  116 	add	hl, sp
   0063 F9            [ 6]  117 	ld	sp, hl
                            118 ;src/main.c:62: drawSprite(sp_vshot,
   0064 21 06 00      [10]  119 	ld	hl, #0x0006
   0067 E5            [11]  120 	push	hl
   0068 2E 01         [ 7]  121 	ld	l, #0x01
   006A E5            [11]  122 	push	hl
   006B 2E 25         [ 7]  123 	ld	l, #0x25
   006D E5            [11]  124 	push	hl
   006E 2E B4         [ 7]  125 	ld	l, #0xb4
   0070 E5            [11]  126 	push	hl
   0071 21r00r00      [10]  127 	ld	hl, #_sp_vshot
   0074 E5            [11]  128 	push	hl
   0075 CDr00r00      [17]  129 	call	_drawSprite
   0078 21 0A 00      [10]  130 	ld	hl, #10
   007B 39            [11]  131 	add	hl, sp
   007C F9            [ 6]  132 	ld	sp, hl
                            133 ;src/main.c:69: drawSprite(sp_enemy_saucer,
   007D 21 10 00      [10]  134 	ld	hl, #0x0010
   0080 E5            [11]  135 	push	hl
   0081 2E 0C         [ 7]  136 	ld	l, #0x0c
   0083 E5            [11]  137 	push	hl
   0084 2E 44         [ 7]  138 	ld	l, #0x44
   0086 E5            [11]  139 	push	hl
   0087 2E 01         [ 7]  140 	ld	l, #0x01
   0089 E5            [11]  141 	push	hl
   008A 21r00r00      [10]  142 	ld	hl, #_sp_enemy_saucer
   008D E5            [11]  143 	push	hl
   008E CDr00r00      [17]  144 	call	_drawSprite
   0091 21 0A 00      [10]  145 	ld	hl, #10
   0094 39            [11]  146 	add	hl, sp
   0095 F9            [ 6]  147 	ld	sp, hl
                            148 ;src/main.c:86: cpct_waitVSYNC();
   0096 CDr00r00      [17]  149 	call	_cpct_waitVSYNC
                            150 ;src/main.c:89: while (1);
   0099                     151 00102$:
   0099 18 FE         [12]  152 	jr	00102$
                            153 	.area _CODE
                            154 	.area _INITIALIZER
                            155 	.area _CABS (ABS)
